; Function Attrs: mustprogress nounwind uwtable
define dso_local void @_ZN4llvm17ModuleSlotTrackerD2Ev(ptr noundef nonnull align 8 dereferenceable(112) %0) unnamed_addr #1 align 2 {
  store ptr getelementptr inbounds inrange(-16, 16) (i8, ptr @_ZTVN4llvm17ModuleSlotTrackerE, i64 16), ptr %0, align 8
  %2 = getelementptr inbounds i8, ptr %0, i64 96
  %3 = load ptr, ptr %2, align 8
  %.not.i.i = icmp eq ptr %3, null
  br i1 %.not.i.i, label %_ZNSt8functionIFvPN4llvm26AbstractSlotTrackerStorageEPKNS0_8FunctionEbEED2Ev.exit, label %4

4:                                                ; preds = %1
  %5 = getelementptr inbounds nuw i8, ptr %0, i64 80
  %6 = tail call noundef zeroext i1 %3(ptr noundef nonnull align 8 dereferenceable(16) %5, ptr noundef nonnull align 8 dereferenceable(16) %5, i32 noundef 3) #25
  br label %_ZNSt8functionIFvPN4llvm26AbstractSlotTrackerStorageEPKNS0_8FunctionEbEED2Ev.exit

_ZNSt8functionIFvPN4llvm26AbstractSlotTrackerStorageEPKNS0_8FunctionEbEED2Ev.exit: ; preds = %1, %4
  %7 = getelementptr inbounds i8, ptr %0, i64 64
  %8 = load ptr, ptr %7, align 8
  %.not.i.i1 = icmp eq ptr %8, null
  br i1 %.not.i.i1, label %_ZNSt8functionIFvPN4llvm26AbstractSlotTrackerStorageEPKNS0_6ModuleEbEED2Ev.exit, label %9

9:                                                ; preds = %_ZNSt8functionIFvPN4llvm26AbstractSlotTrackerStorageEPKNS0_8FunctionEbEED2Ev.exit
  %10 = getelementptr inbounds nuw i8, ptr %0, i64 48
  %11 = tail call noundef zeroext i1 %8(ptr noundef nonnull align 8 dereferenceable(16) %10, ptr noundef nonnull align 8 dereferenceable(16) %10, i32 noundef 3) #25
  br label %_ZNSt8functionIFvPN4llvm26AbstractSlotTrackerStorageEPKNS0_6ModuleEbEED2Ev.exit

_ZNSt8functionIFvPN4llvm26AbstractSlotTrackerStorageEPKNS0_6ModuleEbEED2Ev.exit: ; preds = %_ZNSt8functionIFvPN4llvm26AbstractSlotTrackerStorageEPKNS0_8FunctionEbEED2Ev.exit, %9
  %12 = getelementptr inbounds nuw i8, ptr %0, i64 8
  %13 = load ptr, ptr %12, align 8
  %.not.i = icmp eq ptr %13, null
  br i1 %.not.i, label %_ZNSt10unique_ptrIN4llvm11SlotTrackerESt14default_deleteIS1_EED2Ev.exit, label %_ZNKSt14default_deleteIN4llvm11SlotTrackerEEclEPS1_.exit.i

_ZNKSt14default_deleteIN4llvm11SlotTrackerEEclEPS1_.exit.i: ; preds = %_ZNSt8functionIFvPN4llvm26AbstractSlotTrackerStorageEPKNS0_6ModuleEbEED2Ev.exit
  %14 = load ptr, ptr %13, align 8
  %15 = getelementptr inbounds i8, ptr %14, i64 8
  %16 = load ptr, ptr %15, align 8
  tail call void %16(ptr noundef nonnull align 8 dereferenceable(356) %13) #25
  br label %_ZNSt10unique_ptrIN4llvm11SlotTrackerESt14default_deleteIS1_EED2Ev.exit

_ZNSt10unique_ptrIN4llvm11SlotTrackerESt14default_deleteIS1_EED2Ev.exit: ; preds = %_ZNSt8functionIFvPN4llvm26AbstractSlotTrackerStorageEPKNS0_6ModuleEbEED2Ev.exit, %_ZNKSt14default_deleteIN4llvm11SlotTrackerEEclEPS1_.exit.i
  store ptr null, ptr %12, align 8
  ret void
}